ARM GAS  C:\Users\UTILIZ~1\AppData\Local\Temp\cc5uHqza.s 			page 1


   1              		.cpu cortex-m4
   2              		.eabi_attribute 27, 1
   3              		.eabi_attribute 28, 1
   4              		.eabi_attribute 20, 1
   5              		.eabi_attribute 21, 1
   6              		.eabi_attribute 23, 3
   7              		.eabi_attribute 24, 1
   8              		.eabi_attribute 25, 1
   9              		.eabi_attribute 26, 1
  10              		.eabi_attribute 30, 2
  11              		.eabi_attribute 34, 1
  12              		.eabi_attribute 18, 4
  13              		.file	"audio_processing.c"
  14              		.text
  15              	.Ltext0:
  16              		.cfi_sections	.debug_frame
  17              		.section	.text.processAudioData,"ax",%progbits
  18              		.align	1
  19              		.p2align 4,,15
  20              		.global	processAudioData
  21              		.syntax unified
  22              		.thumb
  23              		.thumb_func
  24              		.fpu fpv4-sp-d16
  25              		.type	processAudioData, %function
  26              	processAudioData:
  27              	.LFB290:
  28              		.file 1 "audio_processing.c"
  29              		.loc 1 37 0
  30              		.cfi_startproc
  31              		@ args = 0, pretend = 0, frame = 8
  32              		@ frame_needed = 0, uses_anonymous_args = 0
  33              	.LVL0:
  34 0000 00B5     		push	{lr}
  35              		.cfi_def_cfa_offset 4
  36              		.cfi_offset 14, -4
  37 0002 064B     		ldr	r3, .L6
  38 0004 83B0     		sub	sp, sp, #12
  39              		.cfi_def_cfa_offset 16
  40              		.loc 1 37 0
  41 0006 1A68     		ldr	r2, [r3]
  42 0008 0192     		str	r2, [sp, #4]
  43              		.loc 1 48 0
  44 000a 019A     		ldr	r2, [sp, #4]
  45 000c 1B68     		ldr	r3, [r3]
  46 000e 9A42     		cmp	r2, r3
  47 0010 02D1     		bne	.L5
  48 0012 03B0     		add	sp, sp, #12
  49              		.cfi_remember_state
  50              		.cfi_def_cfa_offset 4
  51              		@ sp needed
  52 0014 5DF804FB 		ldr	pc, [sp], #4
  53              	.L5:
  54              		.cfi_restore_state
  55 0018 FFF7FEFF 		bl	__stack_chk_fail
  56              	.LVL1:
  57              	.L7:
ARM GAS  C:\Users\UTILIZ~1\AppData\Local\Temp\cc5uHqza.s 			page 2


  58              		.align	2
  59              	.L6:
  60 001c 00000000 		.word	__stack_chk_guard
  61              		.cfi_endproc
  62              	.LFE290:
  63              		.size	processAudioData, .-processAudioData
  64              		.section	.text.wait_send_to_computer,"ax",%progbits
  65              		.align	1
  66              		.p2align 4,,15
  67              		.global	wait_send_to_computer
  68              		.syntax unified
  69              		.thumb
  70              		.thumb_func
  71              		.fpu fpv4-sp-d16
  72              		.type	wait_send_to_computer, %function
  73              	wait_send_to_computer:
  74              	.LFB291:
  75              		.loc 1 51 0
  76              		.cfi_startproc
  77              		@ args = 0, pretend = 0, frame = 8
  78              		@ frame_needed = 0, uses_anonymous_args = 0
  79 0000 00B5     		push	{lr}
  80              		.cfi_def_cfa_offset 4
  81              		.cfi_offset 14, -4
  82 0002 084B     		ldr	r3, .L13
  83 0004 83B0     		sub	sp, sp, #12
  84              		.cfi_def_cfa_offset 16
  85              		.loc 1 51 0
  86 0006 1A68     		ldr	r2, [r3]
  87 0008 0192     		str	r2, [sp, #4]
  88              	.LVL2:
  89              	.LBB4:
  90              	.LBB5:
  91              		.file 2 "../../lib/e-puck2_main-processor/ChibiOS//os/rt/include/chbsem.h"
  92              		.loc 2 143 0
  93 000a 019A     		ldr	r2, [sp, #4]
  94 000c 1B68     		ldr	r3, [r3]
  95 000e 9A42     		cmp	r2, r3
  96 0010 05D1     		bne	.L12
  97 0012 0548     		ldr	r0, .L13+4
  98              	.LBE5:
  99              	.LBE4:
 100              		.loc 1 53 0
 101 0014 03B0     		add	sp, sp, #12
 102              		.cfi_remember_state
 103              		.cfi_def_cfa_offset 4
 104              		@ sp needed
 105 0016 5DF804EB 		ldr	lr, [sp], #4
 106              		.cfi_restore 14
 107              		.cfi_def_cfa_offset 0
 108              	.LBB7:
 109              	.LBB6:
 110              		.loc 2 143 0
 111 001a FFF7FEBF 		b	chSemWait
 112              	.LVL3:
 113              	.L12:
 114              		.cfi_restore_state
ARM GAS  C:\Users\UTILIZ~1\AppData\Local\Temp\cc5uHqza.s 			page 3


 115 001e FFF7FEFF 		bl	__stack_chk_fail
 116              	.LVL4:
 117              	.L14:
 118 0022 00BF     		.align	2
 119              	.L13:
 120 0024 00000000 		.word	__stack_chk_guard
 121 0028 00000000 		.word	.LANCHOR0
 122              	.LBE6:
 123              	.LBE7:
 124              		.cfi_endproc
 125              	.LFE291:
 126              		.size	wait_send_to_computer, .-wait_send_to_computer
 127              		.section	.text.get_audio_buffer_ptr,"ax",%progbits
 128              		.align	1
 129              		.p2align 4,,15
 130              		.global	get_audio_buffer_ptr
 131              		.syntax unified
 132              		.thumb
 133              		.thumb_func
 134              		.fpu fpv4-sp-d16
 135              		.type	get_audio_buffer_ptr, %function
 136              	get_audio_buffer_ptr:
 137              	.LFB292:
 138              		.loc 1 55 0
 139              		.cfi_startproc
 140              		@ args = 0, pretend = 0, frame = 8
 141              		@ frame_needed = 0, uses_anonymous_args = 0
 142              	.LVL5:
 143 0000 00B5     		push	{lr}
 144              		.cfi_def_cfa_offset 4
 145              		.cfi_offset 14, -4
 146 0002 164B     		ldr	r3, .L28
 147 0004 83B0     		sub	sp, sp, #12
 148              		.cfi_def_cfa_offset 16
 149              		.loc 1 55 0
 150 0006 1A68     		ldr	r2, [r3]
 151 0008 0192     		str	r2, [sp, #4]
 152              		.loc 1 56 0
 153 000a 88B1     		cbz	r0, .L18
 154              		.loc 1 59 0
 155 000c 0128     		cmp	r0, #1
 156 000e 17D0     		beq	.L19
 157              		.loc 1 62 0
 158 0010 0228     		cmp	r0, #2
 159 0012 19D0     		beq	.L20
 160              		.loc 1 65 0
 161 0014 0328     		cmp	r0, #3
 162 0016 15D0     		beq	.L21
 163              		.loc 1 68 0
 164 0018 0428     		cmp	r0, #4
 165 001a 17D0     		beq	.L22
 166              		.loc 1 71 0
 167 001c 0528     		cmp	r0, #5
 168 001e 17D0     		beq	.L23
 169              		.loc 1 74 0
 170 0020 0628     		cmp	r0, #6
 171 0022 17D0     		beq	.L24
ARM GAS  C:\Users\UTILIZ~1\AppData\Local\Temp\cc5uHqza.s 			page 4


 172              		.loc 1 81 0
 173 0024 0E4A     		ldr	r2, .L28+4
 174              		.loc 1 77 0
 175 0026 0728     		cmp	r0, #7
 176              		.loc 1 81 0
 177 0028 0CBF     		ite	eq
 178 002a 1046     		moveq	r0, r2
 179              	.LVL6:
 180 002c 0020     		movne	r0, #0
 181 002e 00E0     		b	.L15
 182              	.LVL7:
 183              	.L18:
 184              		.loc 1 57 0
 185 0030 0C48     		ldr	r0, .L28+8
 186              	.LVL8:
 187              	.L15:
 188              		.loc 1 83 0
 189 0032 019A     		ldr	r2, [sp, #4]
 190 0034 1B68     		ldr	r3, [r3]
 191 0036 9A42     		cmp	r2, r3
 192 0038 0ED1     		bne	.L27
 193 003a 03B0     		add	sp, sp, #12
 194              		.cfi_remember_state
 195              		.cfi_def_cfa_offset 4
 196              		@ sp needed
 197 003c 5DF804FB 		ldr	pc, [sp], #4
 198              	.LVL9:
 199              	.L19:
 200              		.cfi_restore_state
 201              		.loc 1 60 0
 202 0040 0948     		ldr	r0, .L28+12
 203              	.LVL10:
 204 0042 F6E7     		b	.L15
 205              	.LVL11:
 206              	.L21:
 207              		.loc 1 66 0
 208 0044 0948     		ldr	r0, .L28+16
 209              	.LVL12:
 210 0046 F4E7     		b	.L15
 211              	.LVL13:
 212              	.L20:
 213              		.loc 1 63 0
 214 0048 0948     		ldr	r0, .L28+20
 215              	.LVL14:
 216 004a F2E7     		b	.L15
 217              	.LVL15:
 218              	.L22:
 219              		.loc 1 69 0
 220 004c 0948     		ldr	r0, .L28+24
 221              	.LVL16:
 222 004e F0E7     		b	.L15
 223              	.LVL17:
 224              	.L23:
 225              		.loc 1 72 0
 226 0050 0948     		ldr	r0, .L28+28
 227              	.LVL18:
 228 0052 EEE7     		b	.L15
ARM GAS  C:\Users\UTILIZ~1\AppData\Local\Temp\cc5uHqza.s 			page 5


 229              	.LVL19:
 230              	.L24:
 231              		.loc 1 75 0
 232 0054 0948     		ldr	r0, .L28+32
 233              	.LVL20:
 234 0056 ECE7     		b	.L15
 235              	.L27:
 236              		.loc 1 83 0
 237 0058 FFF7FEFF 		bl	__stack_chk_fail
 238              	.LVL21:
 239              	.L29:
 240              		.align	2
 241              	.L28:
 242 005c 00000000 		.word	__stack_chk_guard
 243 0060 00000000 		.word	micBack_output
 244 0064 00000000 		.word	micLeft_cmplx_input
 245 0068 00000000 		.word	micRight_cmplx_input
 246 006c 00000000 		.word	micBack_cmplx_input
 247 0070 00000000 		.word	micFront_cmplx_input
 248 0074 00000000 		.word	micLeft_output
 249 0078 00000000 		.word	micRight_output
 250 007c 00000000 		.word	micFront_output
 251              		.cfi_endproc
 252              	.LFE292:
 253              		.size	get_audio_buffer_ptr, .-get_audio_buffer_ptr
 254              		.section	.bss.micBack_cmplx_input,"aw",%nobits
 255              		.align	2
 256              		.type	micBack_cmplx_input, %object
 257              		.size	micBack_cmplx_input, 8192
 258              	micBack_cmplx_input:
 259 0000 00000000 		.space	8192
 259      00000000 
 259      00000000 
 259      00000000 
 259      00000000 
 260              		.section	.bss.micBack_output,"aw",%nobits
 261              		.align	2
 262              		.type	micBack_output, %object
 263              		.size	micBack_output, 4096
 264              	micBack_output:
 265 0000 00000000 		.space	4096
 265      00000000 
 265      00000000 
 265      00000000 
 265      00000000 
 266              		.section	.bss.micFront_cmplx_input,"aw",%nobits
 267              		.align	2
 268              		.type	micFront_cmplx_input, %object
 269              		.size	micFront_cmplx_input, 8192
 270              	micFront_cmplx_input:
 271 0000 00000000 		.space	8192
 271      00000000 
 271      00000000 
 271      00000000 
 271      00000000 
 272              		.section	.bss.micFront_output,"aw",%nobits
 273              		.align	2
ARM GAS  C:\Users\UTILIZ~1\AppData\Local\Temp\cc5uHqza.s 			page 6


 274              		.type	micFront_output, %object
 275              		.size	micFront_output, 4096
 276              	micFront_output:
 277 0000 00000000 		.space	4096
 277      00000000 
 277      00000000 
 277      00000000 
 277      00000000 
 278              		.section	.bss.micLeft_cmplx_input,"aw",%nobits
 279              		.align	2
 280              		.type	micLeft_cmplx_input, %object
 281              		.size	micLeft_cmplx_input, 8192
 282              	micLeft_cmplx_input:
 283 0000 00000000 		.space	8192
 283      00000000 
 283      00000000 
 283      00000000 
 283      00000000 
 284              		.section	.bss.micLeft_output,"aw",%nobits
 285              		.align	2
 286              		.type	micLeft_output, %object
 287              		.size	micLeft_output, 4096
 288              	micLeft_output:
 289 0000 00000000 		.space	4096
 289      00000000 
 289      00000000 
 289      00000000 
 289      00000000 
 290              		.section	.bss.micRight_cmplx_input,"aw",%nobits
 291              		.align	2
 292              		.type	micRight_cmplx_input, %object
 293              		.size	micRight_cmplx_input, 8192
 294              	micRight_cmplx_input:
 295 0000 00000000 		.space	8192
 295      00000000 
 295      00000000 
 295      00000000 
 295      00000000 
 296              		.section	.bss.micRight_output,"aw",%nobits
 297              		.align	2
 298              		.type	micRight_output, %object
 299              		.size	micRight_output, 4096
 300              	micRight_output:
 301 0000 00000000 		.space	4096
 301      00000000 
 301      00000000 
 301      00000000 
 301      00000000 
 302              		.section	.data.sendToComputer_sem,"aw",%progbits
 303              		.align	2
 304              		.set	.LANCHOR0,. + 0
 305              		.type	sendToComputer_sem, %object
 306              		.size	sendToComputer_sem, 12
 307              	sendToComputer_sem:
 308 0000 00000000 		.word	sendToComputer_sem
 309 0004 00000000 		.word	sendToComputer_sem
 310 0008 00000000 		.word	0
ARM GAS  C:\Users\UTILIZ~1\AppData\Local\Temp\cc5uHqza.s 			page 7


 311              		.text
 312              	.Letext0:
 313              		.file 3 "d:\\documents_prives\\epfl\\ba6\\robotique\\installation\\eclipse_e-puck2\\tools\\gcc-arm
 314              		.file 4 "d:\\documents_prives\\epfl\\ba6\\robotique\\installation\\eclipse_e-puck2\\tools\\gcc-arm
 315              		.file 5 "d:\\documents_prives\\epfl\\ba6\\robotique\\installation\\eclipse_e-puck2\\tools\\gcc-arm
 316              		.file 6 "../../lib/e-puck2_main-processor/ChibiOS//os/rt/ports/ARMCMx/compilers/GCC/chtypes.h"
 317              		.file 7 "../../lib/e-puck2_main-processor/ChibiOS//os/rt/include/chsystypes.h"
 318              		.file 8 "../../lib/e-puck2_main-processor/ChibiOS//os/rt/include/chschd.h"
 319              		.file 9 "../../lib/e-puck2_main-processor/ChibiOS//os/ext/CMSIS/include/core_cm4.h"
 320              		.file 10 "../../lib/e-puck2_main-processor/ChibiOS//os/ext/CMSIS/ST/system_stm32f4xx.h"
 321              		.file 11 "../../lib/e-puck2_main-processor/ChibiOS//os/ext/CMSIS/ST/stm32f407xx.h"
 322              		.file 12 "../../lib/e-puck2_main-processor/ChibiOS//os/rt/ports/ARMCMx/chcore.h"
 323              		.file 13 "../../lib/e-puck2_main-processor/ChibiOS//os/rt/ports/ARMCMx/chcore_v7m.h"
 324              		.file 14 "../../lib/e-puck2_main-processor/ChibiOS//os/rt/include/chdebug.h"
 325              		.file 15 "../../lib/e-puck2_main-processor/ChibiOS//os/rt/include/chtm.h"
 326              		.file 16 "../../lib/e-puck2_main-processor/ChibiOS//os/rt/include/chstats.h"
 327              		.file 17 "../../lib/e-puck2_main-processor/ChibiOS//os/rt/include/chsem.h"
 328              		.file 18 "../../lib/e-puck2_main-processor/ChibiOS//os/rt/include/chmtx.h"
 329              		.file 19 "../../lib/e-puck2_main-processor/ChibiOS//os/rt/include/chregistry.h"
 330              		.file 20 "../../lib/e-puck2_main-processor/ChibiOS//os/rt/include/chevents.h"
 331              		.file 21 "../../lib/e-puck2_main-processor/ChibiOS//os/rt/include/chqueues.h"
 332              		.file 22 "../../lib/e-puck2_main-processor/ChibiOS//os/hal/ports/STM32/STM32F4xx/stm32_dma.h"
 333              		.file 23 "../../lib/e-puck2_main-processor/ChibiOS//os/hal/include/hal_ioblock.h"
 334              		.file 24 "../../lib/e-puck2_main-processor/ChibiOS//os/hal/ports/STM32/LLD/GPIOv2/pal_lld.h"
 335              		.file 25 "../../lib/e-puck2_main-processor/ChibiOS//os/hal/include/adc.h"
 336              		.file 26 "../../lib/e-puck2_main-processor/ChibiOS//os/hal/ports/STM32/STM32F4xx/adc_lld.h"
 337              		.file 27 "../../lib/e-puck2_main-processor/ChibiOS//os/hal/include/can.h"
 338              		.file 28 "../../lib/e-puck2_main-processor/ChibiOS//os/hal/ports/STM32/LLD/can_lld.h"
 339              		.file 29 "../../lib/e-puck2_main-processor/ChibiOS//os/hal/include/dac.h"
 340              		.file 30 "../../lib/e-puck2_main-processor/ChibiOS//os/hal/ports/STM32/LLD/DACv1/dac_lld.h"
 341              		.file 31 "../../lib/e-puck2_main-processor/ChibiOS//os/hal/include/ext.h"
 342              		.file 32 "../../lib/e-puck2_main-processor/ChibiOS//os/hal/ports/STM32/LLD/ext_lld.h"
 343              		.file 33 "../../lib/e-puck2_main-processor/ChibiOS//os/hal/include/gpt.h"
 344              		.file 34 "../../lib/e-puck2_main-processor/ChibiOS//os/hal/ports/STM32/LLD/TIMv1/gpt_lld.h"
 345              		.file 35 "../../lib/e-puck2_main-processor/ChibiOS//os/hal/ports/STM32/LLD/TIMv1/stm32_tim.h"
 346              		.file 36 "../../lib/e-puck2_main-processor/ChibiOS//os/hal/include/i2c.h"
 347              		.file 37 "../../lib/e-puck2_main-processor/ChibiOS//os/hal/ports/STM32/LLD/I2Cv1/i2c_lld.h"
 348              		.file 38 "../../lib/e-puck2_main-processor/ChibiOS//os/hal/include/i2s.h"
 349              		.file 39 "../../lib/e-puck2_main-processor/ChibiOS//os/hal/ports/STM32/LLD/SPIv1/i2s_lld.h"
 350              		.file 40 "../../lib/e-puck2_main-processor/ChibiOS//os/hal/include/pwm.h"
 351              		.file 41 "../../lib/e-puck2_main-processor/ChibiOS//os/hal/ports/STM32/LLD/TIMv1/pwm_lld.h"
 352              		.file 42 "../../lib/e-puck2_main-processor/ChibiOS//os/hal/include/serial.h"
 353              		.file 43 "../../lib/e-puck2_main-processor/ChibiOS//os/hal/ports/STM32/LLD/USARTv1/serial_lld.h"
 354              		.file 44 "../../lib/e-puck2_main-processor/ChibiOS//os/hal/include/sdc.h"
 355              		.file 45 "../../lib/e-puck2_main-processor/ChibiOS//os/hal/ports/STM32/LLD/sdc_lld.h"
 356              		.file 46 "../../lib/e-puck2_main-processor/ChibiOS//os/hal/include/spi.h"
 357              		.file 47 "../../lib/e-puck2_main-processor/ChibiOS//os/hal/ports/STM32/LLD/SPIv1/spi_lld.h"
 358              		.file 48 "../../lib/e-puck2_main-processor/ChibiOS//os/hal/include/usb.h"
 359              		.file 49 "../../lib/e-puck2_main-processor/ChibiOS//os/hal/ports/STM32/LLD/OTGv1/usb_lld.h"
 360              		.file 50 "../../lib/e-puck2_main-processor/ChibiOS//os/hal/ports/STM32/LLD/OTGv1/stm32_otg.h"
 361              		.file 51 "../../lib/e-puck2_main-processor/ChibiOS//os/hal/include/serial_usb.h"
 362              		.file 52 "../../lib/e-puck2_main-processor/ChibiOS_ext/os/hal/include/../ports/STM32/STM32F4xx/dcm
 363              		.file 53 "d:\\documents_prives\\epfl\\ba6\\robotique\\installation\\eclipse_e-puck2\\tools\\gcc-ar
 364              		.file 54 "d:\\documents_prives\\epfl\\ba6\\robotique\\installation\\eclipse_e-puck2\\tools\\gcc-ar
 365              		.file 55 "d:\\documents_prives\\epfl\\ba6\\robotique\\installation\\eclipse_e-puck2\\tools\\gcc-ar
 366              		.file 56 "../../lib/e-puck2_main-processor/src/msgbus/messagebus.h"
 367              		.file 57 "d:\\documents_prives\\epfl\\ba6\\robotique\\installation\\eclipse_e-puck2\\tools\\gcc-ar
ARM GAS  C:\Users\UTILIZ~1\AppData\Local\Temp\cc5uHqza.s 			page 8


 368              		.file 58 "d:\\documents_prives\\epfl\\ba6\\robotique\\installation\\eclipse_e-puck2\\tools\\gcc-ar
 369              		.file 59 "../../lib/e-puck2_main-processor/src/parameter/parameter.h"
 370              		.file 60 "./main.h"
 371              		.file 61 "../../lib/e-puck2_main-processor/src/usbcfg.h"
 372              		.file 62 "./audio_processing.h"
 373              		.file 63 "d:\\documents_prives\\epfl\\ba6\\robotique\\installation\\eclipse_e-puck2\\tools\\gcc-ar